; Function Attrs: nounwind uwtable
define internal ptr @rsa_dup(ptr noundef %0, i32 noundef %1) #0 {
  %3 = tail call i32 @ossl_prov_is_running() #6
  %.not = icmp eq i32 %3, 0
  %4 = and i32 %1, 3
  %.not3 = icmp eq i32 %4, 0
  %or.cond = or i1 %.not3, %.not
  br i1 %or.cond, label %7, label %5

5:                                                ; preds = %2
  %6 = tail call ptr @ossl_rsa_dup(ptr noundef %0, i32 noundef %1) #6
  br label %7

7:                                                ; preds = %2, %5
  %.0 = phi ptr [ %6, %5 ], [ null, %2 ]
  ret ptr %.0
}